; Function Attrs: mustprogress uwtable
define hidden void @_ZN19OpenColorIO_v2_5dev20CTFReaderInvLut3DElt3endEv(ptr noundef nonnull readonly align 8 captures(none) dereferenceable(136) %0) unnamed_addr #4 align 2 {
  %2 = getelementptr inbounds nuw i8, ptr %0, i64 96
  %3 = load i32, ptr %2, align 8, !tbaa !252
  %4 = tail call noundef double @_ZN19OpenColorIO_v2_5dev19GetBitDepthMaxValueENS_8BitDepthE(i32 noundef %3)
  %5 = fptrunc double %4 to float
  %6 = fdiv float 1.000000e+00, %5
  %7 = getelementptr inbounds nuw i8, ptr %0, i64 120
  %8 = load ptr, ptr %7, align 8, !tbaa !1011
  tail call void @_ZN19OpenColorIO_v2_5dev11Lut3DOpData5scaleEf(ptr noundef nonnull align 8 dereferenceable(232) %8, float noundef %6)
  %9 = load ptr, ptr %7, align 8, !tbaa !1011
  %10 = load i32, ptr %2, align 8, !tbaa !252
  %11 = getelementptr inbounds nuw i8, ptr %9, i64 228
  store i32 %10, ptr %11, align 4, !tbaa !1016
  %12 = load ptr, ptr %9, align 8, !tbaa !9
  %13 = getelementptr inbounds nuw i8, ptr %12, i64 16
  %14 = load ptr, ptr %13, align 8
  tail call void %14(ptr noundef nonnull align 8 dereferenceable(232) %9)
  ret void
}